; Function Attrs: mustprogress uwtable
define hidden noundef ptr @_ZN3smt17theory_array_base16mk_select_reduceEjPP4expr(ptr nocapture noundef nonnull readonly align 8 dereferenceable(249) %this, i32 noundef %num_args, ptr noundef %args) local_unnamed_addr #3 align 2 {
entry:
  %util = alloca %class.array_util, align 8
  %m = getelementptr inbounds i8, ptr %this, i64 24
  %0 = load ptr, ptr %m, align 8
  call void @_ZN10array_utilC1ER11ast_manager(ptr noundef nonnull align 8 dereferenceable(16) %util, ptr noundef nonnull align 8 dereferenceable(976) %0)
  %1 = load ptr, ptr %args, align 8
  %m_kind.i.i.i17 = getelementptr inbounds i8, ptr %1, i64 4
  %bf.load.i.i.i18 = load i32, ptr %m_kind.i.i.i17, align 4
  %bf.clear.i.i.i19 = and i32 %bf.load.i.i.i18, 65535
  %cmp.i.i20 = icmp ne i32 %bf.clear.i.i.i19, 0
  %cmp14 = icmp ult i32 %num_args, 2
  %or.cond = or i1 %cmp.i.i20, %cmp14
  br i1 %or.cond, label %while.end, label %land.rhs.i.i.preheader

land.rhs.i.i.preheader:                           ; preds = %entry
  %2 = zext i32 %num_args to i64
  br label %land.rhs.i.i

land.rhs.i.i:                                     ; preds = %land.rhs.i.i.preheader, %if.end
  %3 = phi ptr [ %15, %if.end ], [ %1, %land.rhs.i.i.preheader ]
  %m_decl.i.i.i = getelementptr inbounds i8, ptr %3, i64 16
  %4 = load ptr, ptr %m_decl.i.i.i, align 8
  %m_info.i.i.i.i = getelementptr inbounds i8, ptr %4, i64 24
  %5 = load ptr, ptr %m_info.i.i.i.i, align 8
  %tobool.not.i.i.i.i = icmp eq ptr %5, null
  br i1 %tobool.not.i.i.i.i, label %while.end, label %_ZNK17array_recognizers8is_storeEP4expr.exit

_ZNK17array_recognizers8is_storeEP4expr.exit:     ; preds = %land.rhs.i.i
  %6 = load i32, ptr %util, align 8
  %7 = load i32, ptr %5, align 8
  %cmp.i.i.i.i.i = icmp eq i32 %7, %6
  %m_kind.i.i.i.i.i = getelementptr inbounds i8, ptr %5, i64 4
  %8 = load i32, ptr %m_kind.i.i.i.i.i, align 4
  %cmp2.i.i.i.i.i = icmp eq i32 %8, 0
  %9 = select i1 %cmp.i.i.i.i.i, i1 %cmp2.i.i.i.i.i, i1 false
  br i1 %9, label %for.body, label %while.end

for.body:                                         ; preds = %_ZNK17array_recognizers8is_storeEP4expr.exit, %for.body
  %indvars.iv = phi i64 [ %indvars.iv.next, %for.body ], [ 1, %_ZNK17array_recognizers8is_storeEP4expr.exit ]
  %10 = load ptr, ptr %m, align 8
  %arrayidx3 = getelementptr inbounds ptr, ptr %args, i64 %indvars.iv
  %11 = load ptr, ptr %arrayidx3, align 8
  %12 = load ptr, ptr %args, align 8
  %m_args.i = getelementptr inbounds i8, ptr %12, i64 32
  %arrayidx.i = getelementptr inbounds [0 x ptr], ptr %m_args.i, i64 0, i64 %indvars.iv
  %13 = load ptr, ptr %arrayidx.i, align 8
  %call7 = call noundef zeroext i1 @_ZNK11ast_manager12are_distinctEP4exprS1_(ptr noundef nonnull align 8 dereferenceable(976) %10, ptr noundef %11, ptr noundef %13)
  %indvars.iv.next = add nuw nsw i64 %indvars.iv, 1
  %cmp = icmp uge i64 %indvars.iv.next, %2
  %.not = or i1 %cmp, %call7
  br i1 %.not, label %for.cond.for.end_crit_edge, label %for.body, !llvm.loop !4

for.cond.for.end_crit_edge:                       ; preds = %for.body
  br i1 %call7, label %if.end, label %while.end

if.end:                                           ; preds = %for.cond.for.end_crit_edge
  %14 = load ptr, ptr %args, align 8
  %m_args.i13 = getelementptr inbounds i8, ptr %14, i64 32
  %15 = load ptr, ptr %m_args.i13, align 8
  store ptr %15, ptr %args, align 8
  %m_kind.i.i.i = getelementptr inbounds i8, ptr %15, i64 4
  %bf.load.i.i.i = load i32, ptr %m_kind.i.i.i, align 4
  %bf.clear.i.i.i = and i32 %bf.load.i.i.i, 65535
  %cmp.i.i = icmp eq i32 %bf.clear.i.i.i, 0
  br i1 %cmp.i.i, label %land.rhs.i.i, label %while.end, !llvm.loop !6

while.end:                                        ; preds = %_ZNK17array_recognizers8is_storeEP4expr.exit, %for.cond.for.end_crit_edge, %if.end, %land.rhs.i.i, %entry
  %16 = load ptr, ptr %m, align 8
  %m_id.i.i = getelementptr inbounds i8, ptr %this, i64 8
  %17 = load i32, ptr %m_id.i.i, align 8
  %call2.i = call noundef ptr @_ZN11ast_manager6mk_appEiijPK9parameterjPKP4exprP4sort(ptr noundef nonnull align 8 dereferenceable(976) %16, i32 noundef %17, i32 noundef 1, i32 noundef 0, ptr noundef null, i32 noundef %num_args, ptr noundef nonnull %args, ptr noundef null)
  ret ptr %call2.i
}